target datalayout = "e-m:e-p270:32:32-p271:32:32-p272:64:64-i64:64-i128:128-f80:128-n8:16:32:64-S128"
target triple = "x86_64-pc-linux-gnu"

@.str.107 = private unnamed_addr constant [10 x i8] c"XCF_WIDTH\00", align 1
@.str.108 = private unnamed_addr constant [11 x i8] c"XCF_HEIGHT\00", align 1
@.str.109 = private unnamed_addr constant [9 x i8] c"XCF_PROP\00", align 1
@.str.110 = private unnamed_addr constant [9 x i8] c"XCF_NAME\00", align 1
@.str.111 = private unnamed_addr constant [12 x i8] c"XCF_VERSION\00", align 1
@.str.112 = private unnamed_addr constant [14 x i8] c"XCF_BASE_TYPE\00", align 1
@.str.113 = private unnamed_addr constant [14 x i8] c"XCF_PRECISION\00", align 1
@.str.114 = private unnamed_addr constant [13 x i8] c"XCF_N_LAYERS\00", align 1
@.str.115 = private unnamed_addr constant [15 x i8] c"XCF_N_CHANNELS\00", align 1
@.str.116 = private unnamed_addr constant [20 x i8] c"XCF_OMIT_BASE_ALPHA\00", align 1

; Function Attrs: nounwind uwtable
define ptr @xcf_get_field_name(i32 noundef %0) #0 {
  %2 = alloca ptr, align 8
  %3 = alloca i32, align 4
  store i32 %0, ptr %3, align 4, !tbaa !3
  %4 = load i32, ptr %3, align 4, !tbaa !3
  switch i32 %4, label %15 [
    i32 0, label %5
    i32 1, label %6
    i32 2, label %7
    i32 3, label %8
    i32 4, label %9
    i32 5, label %10
    i32 6, label %11
    i32 7, label %12
    i32 8, label %13
    i32 9, label %14
  ]

5:                                                ; preds = %1
  store ptr @.str.107, ptr %2, align 8
  br label %16

6:                                                ; preds = %1
  store ptr @.str.108, ptr %2, align 8
  br label %16

7:                                                ; preds = %1
  store ptr @.str.109, ptr %2, align 8
  br label %16

8:                                                ; preds = %1
  store ptr @.str.110, ptr %2, align 8
  br label %16

9:                                                ; preds = %1
  store ptr @.str.111, ptr %2, align 8
  br label %16

10:                                               ; preds = %1
  store ptr @.str.112, ptr %2, align 8
  br label %16

11:                                               ; preds = %1
  store ptr @.str.113, ptr %2, align 8
  br label %16

12:                                               ; preds = %1
  store ptr @.str.114, ptr %2, align 8
  br label %16

13:                                               ; preds = %1
  store ptr @.str.115, ptr %2, align 8
  br label %16

14:                                               ; preds = %1
  store ptr @.str.116, ptr %2, align 8
  br label %16

15:                                               ; preds = %1
  store ptr null, ptr %2, align 8
  br label %16

16:                                               ; preds = %15, %14, %13, %12, %11, %10, %9, %8, %7, %6, %5
  %17 = load ptr, ptr %2, align 8
  ret ptr %17
}